target datalayout = "e-m:e-p270:32:32-p271:32:32-p272:64:64-i64:64-i128:128-f80:128-n8:16:32:64-S128"
target triple = "x86_64-pc-linux-gnu"

%struct.settings = type { i64, i32, i32, i32, ptr, i32, i32, i32, ptr, ptr, i32, double, i32, i32, i32, i8, i32, i32, i8, i32, i32, i32, i32, i32, i32, i8, i8, i8, i8, i8, i8, i8, i32, i32, double, double, i32, i32, i8, i32, i8, i8, ptr, i32, i32, i32, i32, double, double, i32, i8, i32, i32, i32, i32, i32, i8, i8, i8, ptr, i32, i32, i32, i32, i32, i32, i32, i32, i32, i32, double, i8, i32, i32, ptr, i32 }

@settings = external global %struct.settings, align 8
@.str.97 = private unnamed_addr constant [3 x i8] c"on\00", align 1
@.str.98 = private unnamed_addr constant [3 x i8] c"OK\00", align 1
@.str.99 = private unnamed_addr constant [4 x i8] c"off\00", align 1
@.str.100 = private unnamed_addr constant [5 x i8] c"dump\00", align 1
@.str.101 = private unnamed_addr constant [45 x i8] c"CLIENT_ERROR usage: stats detail on|off|dump\00", align 1

; Function Attrs: inlinehint nounwind uwtable
define internal void @process_stats_detail(ptr noundef %0, ptr noundef %1) #5 {
  %3 = alloca ptr, align 8
  %4 = alloca ptr, align 8
  %5 = alloca i32, align 4
  %6 = alloca ptr, align 8
  store ptr %0, ptr %3, align 8, !tbaa !4
  store ptr %1, ptr %4, align 8, !tbaa !62
  %7 = load ptr, ptr %4, align 8, !tbaa !62
  %8 = call i32 @strcmp(ptr noundef %7, ptr noundef @.str.97) #9
  %9 = icmp eq i32 %8, 0
  br i1 %9, label %10, label %12

10:                                               ; preds = %2
  store i32 1, ptr getelementptr inbounds nuw (%struct.settings, ptr @settings, i32 0, i32 16), align 8, !tbaa !128
  %11 = load ptr, ptr %3, align 8, !tbaa !4
  call void @out_string(ptr noundef %11, ptr noundef @.str.98)
  br label %31

12:                                               ; preds = %2
  %13 = load ptr, ptr %4, align 8, !tbaa !62
  %14 = call i32 @strcmp(ptr noundef %13, ptr noundef @.str.99) #9
  %15 = icmp eq i32 %14, 0
  br i1 %15, label %16, label %18

16:                                               ; preds = %12
  store i32 0, ptr getelementptr inbounds nuw (%struct.settings, ptr @settings, i32 0, i32 16), align 8, !tbaa !128
  %17 = load ptr, ptr %3, align 8, !tbaa !4
  call void @out_string(ptr noundef %17, ptr noundef @.str.98)
  br label %30

18:                                               ; preds = %12
  %19 = load ptr, ptr %4, align 8, !tbaa !62
  %20 = call i32 @strcmp(ptr noundef %19, ptr noundef @.str.100) #9
  %21 = icmp eq i32 %20, 0
  br i1 %21, label %22, label %27

22:                                               ; preds = %18
  call void @llvm.lifetime.start.p0(i64 4, ptr %5) #8
  call void @llvm.lifetime.start.p0(i64 8, ptr %6) #8
  %23 = call ptr @stats_prefix_dump(ptr noundef %5)
  store ptr %23, ptr %6, align 8, !tbaa !62
  %24 = load ptr, ptr %3, align 8, !tbaa !4
  %25 = load ptr, ptr %6, align 8, !tbaa !62
  %26 = load i32, ptr %5, align 4, !tbaa !30
  call void @write_and_free(ptr noundef %24, ptr noundef %25, i32 noundef %26)
  call void @llvm.lifetime.end.p0(i64 8, ptr %6) #8
  call void @llvm.lifetime.end.p0(i64 4, ptr %5) #8
  br label %29

27:                                               ; preds = %18
  %28 = load ptr, ptr %3, align 8, !tbaa !4
  call void @out_string(ptr noundef %28, ptr noundef @.str.101)
  br label %29

29:                                               ; preds = %27, %22
  br label %30

30:                                               ; preds = %29, %16
  br label %31

31:                                               ; preds = %30, %10
  ret void
}