; Function Attrs: inlinehint nounwind uwtable
define internal fastcc void @process_stats_detail(ptr noundef %0, ptr noundef readonly captures(none) %1) unnamed_addr #6 {
sub_0:
  %2 = alloca i32, align 4
  %3 = load i8, ptr %1, align 1
  %.not = icmp eq i8 %3, 111
  br i1 %.not, label %sub_1, label %.tail.thread

sub_1:                                            ; preds = %sub_0
  %4 = getelementptr inbounds nuw i8, ptr %1, i64 1
  %5 = load i8, ptr %4, align 1
  %.not8 = icmp eq i8 %5, 110
  br i1 %.not8, label %.tail, label %.tail.thread

.tail:                                            ; preds = %sub_1
  %6 = getelementptr inbounds nuw i8, ptr %1, i64 2
  %7 = load i8, ptr %6, align 1
  %8 = icmp eq i8 %7, 0
  br i1 %8, label %9, label %.tail.thread

9:                                                ; preds = %.tail
  store i32 1, ptr getelementptr inbounds nuw (i8, ptr @settings, i64 96), align 8, !tbaa !118
  tail call void @out_string(ptr noundef %0, ptr noundef nonnull @.str.98) #13
  br label %20

.tail.thread:                                     ; preds = %sub_1, %sub_0, %.tail
  %10 = tail call i32 @strcmp(ptr noundef nonnull dereferenceable(1) %1, ptr noundef nonnull dereferenceable(4) @.str.99) #14
  %11 = icmp eq i32 %10, 0
  br i1 %11, label %12, label %13

12:                                               ; preds = %.tail.thread
  store i32 0, ptr getelementptr inbounds nuw (i8, ptr @settings, i64 96), align 8, !tbaa !118
  tail call void @out_string(ptr noundef %0, ptr noundef nonnull @.str.98) #13
  br label %20

13:                                               ; preds = %.tail.thread
  %14 = tail call i32 @strcmp(ptr noundef nonnull dereferenceable(1) %1, ptr noundef nonnull dereferenceable(5) @.str.100) #14
  %15 = icmp eq i32 %14, 0
  br i1 %15, label %16, label %19

16:                                               ; preds = %13
  call void @llvm.lifetime.start.p0(i64 4, ptr nonnull %2) #13
  %17 = call ptr @stats_prefix_dump(ptr noundef nonnull %2) #13
  %18 = load i32, ptr %2, align 4, !tbaa !27
  call void @write_and_free(ptr noundef %0, ptr noundef %17, i32 noundef %18) #13
  call void @llvm.lifetime.end.p0(i64 4, ptr nonnull %2) #13
  br label %20

19:                                               ; preds = %13
  tail call void @out_string(ptr noundef %0, ptr noundef nonnull @.str.101) #13
  br label %20

20:                                               ; preds = %12, %19, %16, %9
  ret void
}